target datalayout = "e-m:e-p270:32:32-p271:32:32-p272:64:64-i64:64-i128:128-f80:128-n8:16:32:64-S128"
target triple = "x86_64-pc-linux-gnu"

%struct.blockProperties_t = type { i32, i32, i32 }

; Function Attrs: nounwind uwtable
define internal zeroext i16 @MEM_read16(ptr noundef %0) #0 {
  %2 = alloca ptr, align 8
  store ptr %0, ptr %2, align 8
  %3 = load ptr, ptr %2, align 8
  %4 = load i16, ptr %3, align 1
  ret i16 %4
}

; Function Attrs: nounwind uwtable
define internal i32 @MEM_isLittleEndian() #0 {
  ret i32 1
}

; Function Attrs: nounwind uwtable
define internal zeroext i16 @MEM_readLE16(ptr noundef %0) #0 {
  %2 = alloca i16, align 2
  %3 = alloca ptr, align 8
  %4 = alloca ptr, align 8
  store ptr %0, ptr %3, align 8
  %5 = call i32 @MEM_isLittleEndian()
  %6 = icmp ne i32 %5, 0
  br i1 %6, label %7, label %10

7:                                                ; preds = %1
  %8 = load ptr, ptr %3, align 8
  %9 = call zeroext i16 @MEM_read16(ptr noundef %8)
  store i16 %9, ptr %2, align 2
  br label %23

10:                                               ; preds = %1
  %11 = load ptr, ptr %3, align 8
  store ptr %11, ptr %4, align 8
  %12 = load ptr, ptr %4, align 8
  %13 = getelementptr inbounds i8, ptr %12, i64 0
  %14 = load i8, ptr %13, align 1
  %15 = zext i8 %14 to i32
  %16 = load ptr, ptr %4, align 8
  %17 = getelementptr inbounds i8, ptr %16, i64 1
  %18 = load i8, ptr %17, align 1
  %19 = zext i8 %18 to i32
  %20 = shl i32 %19, 8
  %21 = add nsw i32 %15, %20
  %22 = trunc i32 %21 to i16
  store i16 %22, ptr %2, align 2
  br label %23

23:                                               ; preds = %10, %7
  %24 = load i16, ptr %2, align 2
  ret i16 %24
}

; Function Attrs: nounwind uwtable
define internal i32 @MEM_readLE24(ptr noundef %0) #0 {
  %2 = alloca ptr, align 8
  store ptr %0, ptr %2, align 8
  %3 = load ptr, ptr %2, align 8
  %4 = call zeroext i16 @MEM_readLE16(ptr noundef %3)
  %5 = zext i16 %4 to i32
  %6 = load ptr, ptr %2, align 8
  %7 = getelementptr inbounds i8, ptr %6, i64 2
  %8 = load i8, ptr %7, align 1
  %9 = zext i8 %8 to i32
  %10 = shl i32 %9, 16
  %11 = add i32 %5, %10
  ret i32 %11
}

; Function Attrs: nounwind uwtable
define dso_local i64 @ZSTD_getcBlockSize(ptr noundef %0, i64 noundef %1, ptr noundef %2) #0 {
  %4 = alloca i64, align 8
  %5 = alloca ptr, align 8
  %6 = alloca i64, align 8
  %7 = alloca ptr, align 8
  %8 = alloca i32, align 4
  %9 = alloca i32, align 4
  store ptr %0, ptr %5, align 8
  store i64 %1, ptr %6, align 8
  store ptr %2, ptr %7, align 8
  %10 = load i64, ptr %6, align 8
  %11 = icmp ult i64 %10, 3
  br i1 %11, label %12, label %13

12:                                               ; preds = %3
  store i64 -72, ptr %4, align 8
  br label %44

13:                                               ; preds = %3
  %14 = load ptr, ptr %5, align 8
  %15 = call i32 @MEM_readLE24(ptr noundef %14)
  store i32 %15, ptr %8, align 4
  %16 = load i32, ptr %8, align 4
  %17 = lshr i32 %16, 3
  store i32 %17, ptr %9, align 4
  %18 = load i32, ptr %8, align 4
  %19 = and i32 %18, 1
  %20 = load ptr, ptr %7, align 8
  %21 = getelementptr inbounds %struct.blockProperties_t, ptr %20, i32 0, i32 1
  store i32 %19, ptr %21, align 4
  %22 = load i32, ptr %8, align 4
  %23 = lshr i32 %22, 1
  %24 = and i32 %23, 3
  %25 = load ptr, ptr %7, align 8
  %26 = getelementptr inbounds %struct.blockProperties_t, ptr %25, i32 0, i32 0
  store i32 %24, ptr %26, align 4
  %27 = load i32, ptr %9, align 4
  %28 = load ptr, ptr %7, align 8
  %29 = getelementptr inbounds %struct.blockProperties_t, ptr %28, i32 0, i32 2
  store i32 %27, ptr %29, align 4
  %30 = load ptr, ptr %7, align 8
  %31 = getelementptr inbounds %struct.blockProperties_t, ptr %30, i32 0, i32 0
  %32 = load i32, ptr %31, align 4
  %33 = icmp eq i32 %32, 1
  br i1 %33, label %34, label %35

34:                                               ; preds = %13
  store i64 1, ptr %4, align 8
  br label %44

35:                                               ; preds = %13
  %36 = load ptr, ptr %7, align 8
  %37 = getelementptr inbounds %struct.blockProperties_t, ptr %36, i32 0, i32 0
  %38 = load i32, ptr %37, align 4
  %39 = icmp eq i32 %38, 3
  br i1 %39, label %40, label %41

40:                                               ; preds = %35
  store i64 -20, ptr %4, align 8
  br label %44

41:                                               ; preds = %35
  %42 = load i32, ptr %9, align 4
  %43 = zext i32 %42 to i64
  store i64 %43, ptr %4, align 8
  br label %44

44:                                               ; preds = %41, %40, %34, %12
  %45 = load i64, ptr %4, align 8
  ret i64 %45
}